target datalayout = "e-m:e-p270:32:32-p271:32:32-p272:64:64-i64:64-i128:128-f80:128-n8:16:32:64-S128"
target triple = "x86_64-pc-linux-gnu"

; Function Attrs: mustprogress nounwind uwtable
define linkonce_odr noundef float @_ZSt4sqrtf(float noundef %0) #3 comdat {
  %2 = alloca float, align 4
  store float %0, ptr %2, align 4
  %3 = load float, ptr %2, align 4
  %4 = call float @sqrtf(float noundef %3) #4
  ret float %4
}

; Function Attrs: mustprogress nounwind uwtable
define internal void @_ZL8rvec_subPKfS0_Pf(ptr noundef %0, ptr noundef %1, ptr noundef %2) #3 {
  %4 = alloca ptr, align 8
  %5 = alloca ptr, align 8
  %6 = alloca ptr, align 8
  %7 = alloca float, align 4
  %8 = alloca float, align 4
  %9 = alloca float, align 4
  store ptr %0, ptr %4, align 8
  store ptr %1, ptr %5, align 8
  store ptr %2, ptr %6, align 8
  %10 = load ptr, ptr %4, align 8
  %11 = getelementptr inbounds float, ptr %10, i64 0
  %12 = load float, ptr %11, align 4
  %13 = load ptr, ptr %5, align 8
  %14 = getelementptr inbounds float, ptr %13, i64 0
  %15 = load float, ptr %14, align 4
  %16 = fsub float %12, %15
  store float %16, ptr %7, align 4
  %17 = load ptr, ptr %4, align 8
  %18 = getelementptr inbounds float, ptr %17, i64 1
  %19 = load float, ptr %18, align 4
  %20 = load ptr, ptr %5, align 8
  %21 = getelementptr inbounds float, ptr %20, i64 1
  %22 = load float, ptr %21, align 4
  %23 = fsub float %19, %22
  store float %23, ptr %8, align 4
  %24 = load ptr, ptr %4, align 8
  %25 = getelementptr inbounds float, ptr %24, i64 2
  %26 = load float, ptr %25, align 4
  %27 = load ptr, ptr %5, align 8
  %28 = getelementptr inbounds float, ptr %27, i64 2
  %29 = load float, ptr %28, align 4
  %30 = fsub float %26, %29
  store float %30, ptr %9, align 4
  %31 = load float, ptr %7, align 4
  %32 = load ptr, ptr %6, align 8
  %33 = getelementptr inbounds float, ptr %32, i64 0
  store float %31, ptr %33, align 4
  %34 = load float, ptr %8, align 4
  %35 = load ptr, ptr %6, align 8
  %36 = getelementptr inbounds float, ptr %35, i64 1
  store float %34, ptr %36, align 4
  %37 = load float, ptr %9, align 4
  %38 = load ptr, ptr %6, align 8
  %39 = getelementptr inbounds float, ptr %38, i64 2
  store float %37, ptr %39, align 4
  ret void
}

; Function Attrs: mustprogress nounwind uwtable
define linkonce_odr noundef float @_ZSt3expf(float noundef %0) #3 comdat {
  %2 = alloca float, align 4
  store float %0, ptr %2, align 4
  %3 = load float, ptr %2, align 4
  %4 = call float @expf(float noundef %3) #4
  ret float %4
}

; Function Attrs: mustprogress nounwind uwtable
define internal noundef float @_ZN3gmxL7invsqrtEf(float noundef %0) #3 {
  %2 = alloca float, align 4
  store float %0, ptr %2, align 4
  %3 = load float, ptr %2, align 4
  %4 = call noundef float @_ZSt4sqrtf(float noundef %3)
  %5 = fdiv float 1.000000e+00, %4
  ret float %5
}

; Function Attrs: mustprogress nounwind uwtable
define internal noundef float @_ZL5iprodPKfS0_(ptr noundef %0, ptr noundef %1) #3 {
  %3 = alloca ptr, align 8
  %4 = alloca ptr, align 8
  store ptr %0, ptr %3, align 8
  store ptr %1, ptr %4, align 8
  %5 = load ptr, ptr %3, align 8
  %6 = getelementptr inbounds float, ptr %5, i64 0
  %7 = load float, ptr %6, align 4
  %8 = load ptr, ptr %4, align 8
  %9 = getelementptr inbounds float, ptr %8, i64 0
  %10 = load float, ptr %9, align 4
  %11 = load ptr, ptr %3, align 8
  %12 = getelementptr inbounds float, ptr %11, i64 1
  %13 = load float, ptr %12, align 4
  %14 = load ptr, ptr %4, align 8
  %15 = getelementptr inbounds float, ptr %14, i64 1
  %16 = load float, ptr %15, align 4
  %17 = fmul float %13, %16
  %18 = call float @llvm.fmuladd.f32(float %7, float %10, float %17)
  %19 = load ptr, ptr %3, align 8
  %20 = getelementptr inbounds float, ptr %19, i64 2
  %21 = load float, ptr %20, align 4
  %22 = load ptr, ptr %4, align 8
  %23 = getelementptr inbounds float, ptr %22, i64 2
  %24 = load float, ptr %23, align 4
  %25 = call float @llvm.fmuladd.f32(float %21, float %24, float %18)
  ret float %25
}

; Function Attrs: mustprogress uwtable
define internal noundef i32 @_ZN12_GLOBAL__N_112pbc_rvec_subEPK5t_pbcPKfS4_Pf(ptr noundef %0, ptr noundef %1, ptr noundef %2, ptr noundef %3) #2 {
  %5 = alloca i32, align 4
  %6 = alloca ptr, align 8
  %7 = alloca ptr, align 8
  %8 = alloca ptr, align 8
  %9 = alloca ptr, align 8
  store ptr %0, ptr %6, align 8
  store ptr %1, ptr %7, align 8
  store ptr %2, ptr %8, align 8
  store ptr %3, ptr %9, align 8
  %10 = load ptr, ptr %6, align 8
  %11 = icmp ne ptr %10, null
  br i1 %11, label %12, label %18

12:                                               ; preds = %4
  %13 = load ptr, ptr %6, align 8
  %14 = load ptr, ptr %7, align 8
  %15 = load ptr, ptr %8, align 8
  %16 = load ptr, ptr %9, align 8
  %17 = call noundef i32 @_Z11pbc_dx_aiucPK5t_pbcPKfS3_Pf(ptr noundef %13, ptr noundef %14, ptr noundef %15, ptr noundef %16)
  store i32 %17, ptr %5, align 4
  br label %22

18:                                               ; preds = %4
  %19 = load ptr, ptr %7, align 8
  %20 = load ptr, ptr %8, align 8
  %21 = load ptr, ptr %9, align 8
  call void @_ZL8rvec_subPKfS0_Pf(ptr noundef %19, ptr noundef %20, ptr noundef %21)
  store i32 22, ptr %5, align 4
  br label %22

22:                                               ; preds = %18, %12
  %23 = load i32, ptr %5, align 4
  ret i32 %23
}

; Function Attrs: mustprogress uwtable
define internal noundef float @_ZN12_GLOBAL__N_110do_1_tholeIL18BondedKernelFlavor3EEEfPKfS3_PfS4_PK5t_pbcfPA3_ff(ptr noundef %0, ptr noundef %1, ptr noundef %2, ptr noundef %3, ptr noundef %4, float noundef %5, ptr noundef %6, float noundef %7) #2 {
  %9 = alloca ptr, align 8
  %10 = alloca ptr, align 8
  %11 = alloca ptr, align 8
  %12 = alloca ptr, align 8
  %13 = alloca ptr, align 8
  %14 = alloca float, align 4
  %15 = alloca ptr, align 8
  %16 = alloca float, align 4
  %17 = alloca [3 x float], align 4
  %18 = alloca float, align 4
  %19 = alloca float, align 4
  %20 = alloca float, align 4
  %21 = alloca float, align 4
  %22 = alloca float, align 4
  %23 = alloca float, align 4
  %24 = alloca float, align 4
  %25 = alloca float, align 4
  %26 = alloca i32, align 4
  %27 = alloca i32, align 4
  store ptr %0, ptr %9, align 8
  store ptr %1, ptr %10, align 8
  store ptr %2, ptr %11, align 8
  store ptr %3, ptr %12, align 8
  store ptr %4, ptr %13, align 8
  store float %5, ptr %14, align 4
  store ptr %6, ptr %15, align 8
  store float %7, ptr %16, align 4
  %28 = load ptr, ptr %13, align 8
  %29 = load ptr, ptr %9, align 8
  %30 = load ptr, ptr %10, align 8
  %31 = getelementptr inbounds [3 x float], ptr %17, i64 0, i64 0
  %32 = call noundef i32 @_ZN12_GLOBAL__N_112pbc_rvec_subEPK5t_pbcPKfS4_Pf(ptr noundef %28, ptr noundef %29, ptr noundef %30, ptr noundef %31)
  store i32 %32, ptr %27, align 4
  %33 = getelementptr inbounds [3 x float], ptr %17, i64 0, i64 0
  %34 = getelementptr inbounds [3 x float], ptr %17, i64 0, i64 0
  %35 = call noundef float @_ZL5iprodPKfS0_(ptr noundef %33, ptr noundef %34)
  store float %35, ptr %18, align 4
  %36 = load float, ptr %18, align 4
  %37 = call noundef float @_ZN3gmxL7invsqrtEf(float noundef %36)
  store float %37, ptr %19, align 4
  %38 = load float, ptr %16, align 4
  %39 = load float, ptr %19, align 4
  %40 = fdiv float %38, %39
  store float %40, ptr %20, align 4
  %41 = load float, ptr %14, align 4
  %42 = fpext float %41 to double
  %43 = fmul double %42, 0x40615DEF44DEAD3D
  %44 = load float, ptr %19, align 4
  %45 = fpext float %44 to double
  %46 = fmul double %43, %45
  %47 = fptrunc double %46 to float
  store float %47, ptr %21, align 4
  %48 = load float, ptr %20, align 4
  %49 = fneg float %48
  %50 = call noundef float @_ZSt3expf(float noundef %49)
  store float %50, ptr %24, align 4
  %51 = load float, ptr %20, align 4
  %52 = fpext float %51 to double
  %53 = call double @llvm.fmuladd.f64(double 5.000000e-01, double %52, double 1.000000e+00)
  %54 = load float, ptr %24, align 4
  %55 = fpext float %54 to double
  %56 = fneg double %53
  %57 = call double @llvm.fmuladd.f64(double %56, double %55, double 1.000000e+00)
  %58 = fptrunc double %57 to float
  store float %58, ptr %22, align 4
  %59 = load float, ptr %21, align 4
  %60 = load float, ptr %19, align 4
  %61 = fmul float %59, %60
  %62 = load float, ptr %22, align 4
  %63 = fmul float %61, %62
  %64 = fpext float %63 to double
  %65 = load float, ptr %21, align 4
  %66 = fpext float %65 to double
  %67 = fmul double %66, 5.000000e-01
  %68 = load float, ptr %16, align 4
  %69 = fpext float %68 to double
  %70 = fmul double %67, %69
  %71 = load float, ptr %24, align 4
  %72 = fpext float %71 to double
  %73 = fmul double %70, %72
  %74 = load float, ptr %20, align 4
  %75 = fadd float %74, 1.000000e+00
  %76 = fpext float %75 to double
  %77 = fneg double %73
  %78 = call double @llvm.fmuladd.f64(double %77, double %76, double %64)
  %79 = load float, ptr %19, align 4
  %80 = fpext float %79 to double
  %81 = fmul double %78, %80
  %82 = fptrunc double %81 to float
  store float %82, ptr %23, align 4
  store i32 0, ptr %26, align 4
  br label %83

83:                                               ; preds = %107, %8
  %84 = load i32, ptr %26, align 4
  %85 = icmp slt i32 %84, 3
  br i1 %85, label %86, label %110

86:                                               ; preds = %83
  %87 = load float, ptr %23, align 4
  %88 = load i32, ptr %26, align 4
  %89 = sext i32 %88 to i64
  %90 = getelementptr inbounds [3 x float], ptr %17, i64 0, i64 %89
  %91 = load float, ptr %90, align 4
  %92 = fmul float %87, %91
  store float %92, ptr %25, align 4
  %93 = load float, ptr %25, align 4
  %94 = load ptr, ptr %11, align 8
  %95 = load i32, ptr %26, align 4
  %96 = sext i32 %95 to i64
  %97 = getelementptr inbounds float, ptr %94, i64 %96
  %98 = load float, ptr %97, align 4
  %99 = fadd float %98, %93
  store float %99, ptr %97, align 4
  %100 = load float, ptr %25, align 4
  %101 = load ptr, ptr %12, align 8
  %102 = load i32, ptr %26, align 4
  %103 = sext i32 %102 to i64
  %104 = getelementptr inbounds float, ptr %101, i64 %103
  %105 = load float, ptr %104, align 4
  %106 = fsub float %105, %100
  store float %106, ptr %104, align 4
  br label %107

107:                                              ; preds = %86
  %108 = load i32, ptr %26, align 4
  %109 = add nsw i32 %108, 1
  store i32 %109, ptr %26, align 4
  br label %83, !llvm.loop !217

110:                                              ; preds = %83
  %111 = load float, ptr %21, align 4
  %112 = load float, ptr %22, align 4
  %113 = fmul float %111, %112
  ret float %113
}