; Function Attrs: mustprogress uwtable
define internal fastcc noundef float @_ZN12_GLOBAL__N_110do_1_tholeIL18BondedKernelFlavor3EEEfPKfS3_PfS4_PK5t_pbcfPA3_ff(ptr noundef %0, ptr noundef %1, ptr nocapture noundef %2, ptr nocapture noundef %3, ptr noundef %4, float noundef %5, float noundef %6) unnamed_addr #4 {
  %8 = alloca [3 x float], align 8
  %.not.i = icmp eq ptr %4, null
  br i1 %.not.i, label %12, label %9

9:                                                ; preds = %7
  %10 = call noundef i32 @_Z11pbc_dx_aiucPK5t_pbcPKfS3_Pf(ptr noundef nonnull %4, ptr noundef %0, ptr noundef %1, ptr noundef nonnull %8)
  %11 = load <2 x float>, ptr %8, align 8
  %.phi.trans.insert4 = getelementptr inbounds i8, ptr %8, i64 8
  %.pre5 = load float, ptr %.phi.trans.insert4, align 8
  br label %_ZN12_GLOBAL__N_112pbc_rvec_subEPK5t_pbcPKfS4_Pf.exit

12:                                               ; preds = %7
  %13 = load <2 x float>, ptr %0, align 4
  %14 = load <2 x float>, ptr %1, align 4
  %15 = fsub <2 x float> %13, %14
  %16 = getelementptr inbounds i8, ptr %0, i64 8
  %17 = load float, ptr %16, align 4
  %18 = getelementptr inbounds i8, ptr %1, i64 8
  %19 = load float, ptr %18, align 4
  %20 = fsub float %17, %19
  store <2 x float> %15, ptr %8, align 8
  %21 = getelementptr inbounds i8, ptr %8, i64 8
  store float %20, ptr %21, align 8
  br label %_ZN12_GLOBAL__N_112pbc_rvec_subEPK5t_pbcPKfS4_Pf.exit

_ZN12_GLOBAL__N_112pbc_rvec_subEPK5t_pbcPKfS4_Pf.exit: ; preds = %9, %12
  %22 = phi float [ %.pre5, %9 ], [ %20, %12 ]
  %23 = phi <2 x float> [ %11, %9 ], [ %15, %12 ]
  %24 = fmul <2 x float> %23, %23
  %25 = extractelement <2 x float> %24, i64 1
  %26 = extractelement <2 x float> %23, i64 0
  %27 = call float @llvm.fmuladd.f32(float %26, float %26, float %25)
  %28 = call noundef float @llvm.fmuladd.f32(float %22, float %22, float %27)
  %sqrt = call float @llvm.sqrt.f32(float %28)
  %29 = fdiv float 1.000000e+00, %sqrt
  %30 = fdiv float %6, %29
  %31 = fpext float %5 to double
  %32 = fmul double %31, 0x40615DEF44DEAD3D
  %33 = fpext float %29 to double
  %34 = fmul double %32, %33
  %35 = fptrunc double %34 to float
  %36 = fneg float %30
  %37 = call noundef float @expf(float noundef %36) #22
  %38 = fpext float %30 to double
  %39 = call double @llvm.fmuladd.f64(double %38, double 5.000000e-01, double 1.000000e+00)
  %40 = fpext float %37 to double
  %41 = fneg double %39
  %42 = call double @llvm.fmuladd.f64(double %41, double %40, double 1.000000e+00)
  %43 = fptrunc double %42 to float
  %44 = fmul float %29, %35
  %45 = fmul float %44, %43
  %46 = fpext float %45 to double
  %47 = fpext float %35 to double
  %48 = fpext float %6 to double
  %49 = fadd float %30, 1.000000e+00
  %50 = fpext float %49 to double
  %51 = fmul double %47, -5.000000e-01
  %52 = fmul double %51, %48
  %53 = fmul double %52, %40
  %54 = call double @llvm.fmuladd.f64(double %53, double %50, double %46)
  %55 = fmul double %54, %33
  %56 = fptrunc double %55 to float
  br label %57

57:                                               ; preds = %_ZN12_GLOBAL__N_112pbc_rvec_subEPK5t_pbcPKfS4_Pf.exit, %57
  %indvars.iv = phi i64 [ 0, %_ZN12_GLOBAL__N_112pbc_rvec_subEPK5t_pbcPKfS4_Pf.exit ], [ %indvars.iv.next, %57 ]
  %58 = getelementptr inbounds [3 x float], ptr %8, i64 0, i64 %indvars.iv
  %59 = load float, ptr %58, align 4
  %60 = fmul float %59, %56
  %61 = getelementptr inbounds float, ptr %2, i64 %indvars.iv
  %62 = load float, ptr %61, align 4
  %63 = fadd float %62, %60
  store float %63, ptr %61, align 4
  %64 = getelementptr inbounds float, ptr %3, i64 %indvars.iv
  %65 = load float, ptr %64, align 4
  %66 = fsub float %65, %60
  store float %66, ptr %64, align 4
  %indvars.iv.next = add nuw nsw i64 %indvars.iv, 1
  %exitcond.not = icmp eq i64 %indvars.iv.next, 3
  br i1 %exitcond.not, label %67, label %57, !llvm.loop !217

67:                                               ; preds = %57
  %68 = fmul float %35, %43
  ret float %68
}